target datalayout = "e-m:e-p270:32:32-p271:32:32-p272:64:64-i64:64-i128:128-f80:128-n8:16:32:64-S128"
target triple = "x86_64-pc-linux-gnu"

%struct.AVChannelLayout = type { i32, i32, %union.anon, ptr }
%union.anon = type { i64 }
%struct.AVFormatContext = type { ptr, ptr, ptr, ptr, ptr, i32, i32, ptr, i32, ptr, i32, ptr, ptr, i64, i64, i64, i32, i32, i32, i64, i64, ptr, i32, i32, ptr, i32, i32, i32, i32, ptr, i64, i32, i32, %struct.AVIOInterruptCB, i32, i32, i32, i32, i64, i32, i32, i32, i32, i32, i32, i32, i32, i32, i32, i32, i32, i64, i32, i32, i32, i32, i32, ptr, ptr, ptr, ptr, i32, ptr, ptr, ptr, ptr, i32, ptr, ptr, i64, ptr, ptr, ptr, i64 }
%struct.AVIOInterruptCB = type { ptr, ptr }
%struct.AVStream = type { ptr, i32, i32, ptr, ptr, %struct.AVRational, i64, i64, i64, i32, i32, %struct.AVRational, ptr, %struct.AVRational, %struct.AVPacket, i32, %struct.AVRational, i32 }
%struct.AVPacket = type { ptr, i64, i64, ptr, i32, i32, i32, ptr, i32, i64, i64, ptr, ptr, %struct.AVRational }
%struct.AVRational = type { i32, i32 }
%struct.AVCodecParameters = type { i32, i32, i32, ptr, i32, ptr, i32, i32, i64, i32, i32, i32, i32, i32, i32, %struct.AVRational, %struct.AVRational, i32, i32, i32, i32, i32, i32, i32, %struct.AVChannelLayout, i32, i32, i32, i32, i32, i32 }

@.str.3 = private unnamed_addr constant [18 x i8] c"unknown chunk %x\0A\00", align 1

; Function Attrs: alwaysinline nounwind uwtable
define internal i64 @avio_tell(ptr noundef %0) #5 {
  %2 = alloca ptr, align 8
  store ptr %0, ptr %2, align 8, !tbaa !62
  %3 = load ptr, ptr %2, align 8, !tbaa !62
  %4 = call i64 @avio_seek(ptr noundef %3, i64 noundef 0, i32 noundef 1)
  ret i64 %4
}

; Function Attrs: nounwind uwtable
define internal i32 @ast_read_packet(ptr noundef %0, ptr noundef %1) #0 {
  %3 = alloca i32, align 4
  %4 = alloca ptr, align 8
  %5 = alloca ptr, align 8
  %6 = alloca i32, align 4
  %7 = alloca i32, align 4
  %8 = alloca i64, align 8
  %9 = alloca i32, align 4
  %10 = alloca i32, align 4
  store ptr %0, ptr %4, align 8, !tbaa !14
  store ptr %1, ptr %5, align 8, !tbaa !54
  call void @llvm.lifetime.start.p0(i64 4, ptr %6) #7
  call void @llvm.lifetime.start.p0(i64 4, ptr %7) #7
  call void @llvm.lifetime.start.p0(i64 8, ptr %8) #7
  call void @llvm.lifetime.start.p0(i64 4, ptr %9) #7
  %11 = load ptr, ptr %4, align 8, !tbaa !14
  %12 = getelementptr inbounds nuw %struct.AVFormatContext, ptr %11, i32 0, i32 4
  %13 = load ptr, ptr %12, align 8, !tbaa !18
  %14 = call i32 @avio_feof(ptr noundef %13)
  %15 = icmp ne i32 %14, 0
  br i1 %15, label %16, label %17

16:                                               ; preds = %2
  store i32 -541478725, ptr %3, align 4
  store i32 1, ptr %10, align 4
  br label %103

17:                                               ; preds = %2
  %18 = load ptr, ptr %4, align 8, !tbaa !14
  %19 = getelementptr inbounds nuw %struct.AVFormatContext, ptr %18, i32 0, i32 4
  %20 = load ptr, ptr %19, align 8, !tbaa !18
  %21 = call i64 @avio_tell(ptr noundef %20)
  store i64 %21, ptr %8, align 8, !tbaa !56
  %22 = load ptr, ptr %4, align 8, !tbaa !14
  %23 = getelementptr inbounds nuw %struct.AVFormatContext, ptr %22, i32 0, i32 4
  %24 = load ptr, ptr %23, align 8, !tbaa !18
  %25 = call i32 @avio_rl32(ptr noundef %24)
  store i32 %25, ptr %6, align 4, !tbaa !44
  %26 = load ptr, ptr %4, align 8, !tbaa !14
  %27 = getelementptr inbounds nuw %struct.AVFormatContext, ptr %26, i32 0, i32 4
  %28 = load ptr, ptr %27, align 8, !tbaa !18
  %29 = call i32 @avio_rb32(ptr noundef %28)
  store i32 %29, ptr %7, align 4, !tbaa !44
  %30 = load ptr, ptr %4, align 8, !tbaa !14
  %31 = getelementptr inbounds nuw %struct.AVFormatContext, ptr %30, i32 0, i32 7
  %32 = load ptr, ptr %31, align 8, !tbaa !57
  %33 = getelementptr inbounds ptr, ptr %32, i64 0
  %34 = load ptr, ptr %33, align 8, !tbaa !16
  %35 = getelementptr inbounds nuw %struct.AVStream, ptr %34, i32 0, i32 3
  %36 = load ptr, ptr %35, align 8, !tbaa !33
  %37 = getelementptr inbounds nuw %struct.AVCodecParameters, ptr %36, i32 0, i32 24
  %38 = getelementptr inbounds nuw %struct.AVChannelLayout, ptr %37, i32 0, i32 1
  %39 = load i32, ptr %38, align 4, !tbaa !45
  %40 = icmp ne i32 %39, 0
  br i1 %40, label %41, label %55

41:                                               ; preds = %17
  %42 = load i32, ptr %7, align 4, !tbaa !44
  %43 = load ptr, ptr %4, align 8, !tbaa !14
  %44 = getelementptr inbounds nuw %struct.AVFormatContext, ptr %43, i32 0, i32 7
  %45 = load ptr, ptr %44, align 8, !tbaa !57
  %46 = getelementptr inbounds ptr, ptr %45, i64 0
  %47 = load ptr, ptr %46, align 8, !tbaa !16
  %48 = getelementptr inbounds nuw %struct.AVStream, ptr %47, i32 0, i32 3
  %49 = load ptr, ptr %48, align 8, !tbaa !33
  %50 = getelementptr inbounds nuw %struct.AVCodecParameters, ptr %49, i32 0, i32 24
  %51 = getelementptr inbounds nuw %struct.AVChannelLayout, ptr %50, i32 0, i32 1
  %52 = load i32, ptr %51, align 4, !tbaa !45
  %53 = sdiv i32 2147483647, %52
  %54 = icmp ugt i32 %42, %53
  br i1 %54, label %55, label %56

55:                                               ; preds = %41, %17
  store i32 -1094995529, ptr %3, align 4
  store i32 1, ptr %10, align 4
  br label %103

56:                                               ; preds = %41
  %57 = load ptr, ptr %4, align 8, !tbaa !14
  %58 = getelementptr inbounds nuw %struct.AVFormatContext, ptr %57, i32 0, i32 7
  %59 = load ptr, ptr %58, align 8, !tbaa !57
  %60 = getelementptr inbounds ptr, ptr %59, i64 0
  %61 = load ptr, ptr %60, align 8, !tbaa !16
  %62 = getelementptr inbounds nuw %struct.AVStream, ptr %61, i32 0, i32 3
  %63 = load ptr, ptr %62, align 8, !tbaa !33
  %64 = getelementptr inbounds nuw %struct.AVCodecParameters, ptr %63, i32 0, i32 24
  %65 = getelementptr inbounds nuw %struct.AVChannelLayout, ptr %64, i32 0, i32 1
  %66 = load i32, ptr %65, align 4, !tbaa !45
  %67 = load i32, ptr %7, align 4, !tbaa !44
  %68 = mul i32 %67, %66
  store i32 %68, ptr %7, align 4, !tbaa !44
  %69 = load ptr, ptr %4, align 8, !tbaa !14
  %70 = getelementptr inbounds nuw %struct.AVFormatContext, ptr %69, i32 0, i32 4
  %71 = load ptr, ptr %70, align 8, !tbaa !18
  %72 = call i64 @avio_skip(ptr noundef %71, i64 noundef 24)
  %73 = trunc i64 %72 to i32
  store i32 %73, ptr %9, align 4, !tbaa !44
  %74 = icmp slt i32 %73, 0
  br i1 %74, label %75, label %77

75:                                               ; preds = %56
  %76 = load i32, ptr %9, align 4, !tbaa !44
  store i32 %76, ptr %3, align 4
  store i32 1, ptr %10, align 4
  br label %103

77:                                               ; preds = %56
  %78 = load i32, ptr %6, align 4, !tbaa !44
  %79 = icmp eq i32 %78, 1262701634
  br i1 %79, label %80, label %92

80:                                               ; preds = %77
  %81 = load ptr, ptr %4, align 8, !tbaa !14
  %82 = getelementptr inbounds nuw %struct.AVFormatContext, ptr %81, i32 0, i32 4
  %83 = load ptr, ptr %82, align 8, !tbaa !18
  %84 = load ptr, ptr %5, align 8, !tbaa !54
  %85 = load i32, ptr %7, align 4, !tbaa !44
  %86 = call i32 @av_get_packet(ptr noundef %83, ptr noundef %84, i32 noundef %85)
  store i32 %86, ptr %9, align 4, !tbaa !44
  %87 = load ptr, ptr %5, align 8, !tbaa !54
  %88 = getelementptr inbounds nuw %struct.AVPacket, ptr %87, i32 0, i32 5
  store i32 0, ptr %88, align 4, !tbaa !58
  %89 = load i64, ptr %8, align 8, !tbaa !56
  %90 = load ptr, ptr %5, align 8, !tbaa !54
  %91 = getelementptr inbounds nuw %struct.AVPacket, ptr %90, i32 0, i32 10
  store i64 %89, ptr %91, align 8, !tbaa !59
  br label %101

92:                                               ; preds = %77
  %93 = load ptr, ptr %4, align 8, !tbaa !14
  %94 = load i32, ptr %6, align 4, !tbaa !44
  call void (ptr, i32, ptr, ...) @av_log(ptr noundef %93, i32 noundef 16, ptr noundef @.str.3, i32 noundef %94)
  %95 = load ptr, ptr %4, align 8, !tbaa !14
  %96 = getelementptr inbounds nuw %struct.AVFormatContext, ptr %95, i32 0, i32 4
  %97 = load ptr, ptr %96, align 8, !tbaa !18
  %98 = load i32, ptr %7, align 4, !tbaa !44
  %99 = zext i32 %98 to i64
  %100 = call i64 @avio_skip(ptr noundef %97, i64 noundef %99)
  store i32 -1094995529, ptr %9, align 4, !tbaa !44
  br label %101

101:                                              ; preds = %92, %80
  %102 = load i32, ptr %9, align 4, !tbaa !44
  store i32 %102, ptr %3, align 4
  store i32 1, ptr %10, align 4
  br label %103

103:                                              ; preds = %101, %75, %55, %16
  call void @llvm.lifetime.end.p0(i64 4, ptr %9) #7
  call void @llvm.lifetime.end.p0(i64 8, ptr %8) #7
  call void @llvm.lifetime.end.p0(i64 4, ptr %7) #7
  call void @llvm.lifetime.end.p0(i64 4, ptr %6) #7
  %104 = load i32, ptr %3, align 4
  ret i32 %104
}