; Function Attrs: nounwind uwtable
define internal i32 @ast_read_packet(ptr noundef %0, ptr noundef %1) #1 {
  %3 = getelementptr inbounds nuw i8, ptr %0, i64 32
  %4 = load ptr, ptr %3, align 8, !tbaa !12
  %5 = tail call i32 @avio_feof(ptr noundef %4) #4
  %.not = icmp eq i32 %5, 0
  br i1 %.not, label %6, label %40

6:                                                ; preds = %2
  %7 = load ptr, ptr %3, align 8, !tbaa !12
  %8 = tail call i64 @avio_seek(ptr noundef %7, i64 noundef 0, i32 noundef 1) #4
  %9 = load ptr, ptr %3, align 8, !tbaa !12
  %10 = tail call i32 @avio_rl32(ptr noundef %9) #4
  %11 = load ptr, ptr %3, align 8, !tbaa !12
  %12 = tail call i32 @avio_rb32(ptr noundef %11) #4
  %13 = getelementptr inbounds nuw i8, ptr %0, i64 48
  %14 = load ptr, ptr %13, align 8, !tbaa !44
  %15 = load ptr, ptr %14, align 8, !tbaa !45
  %16 = getelementptr inbounds nuw i8, ptr %15, i64 16
  %17 = load ptr, ptr %16, align 8, !tbaa !27
  %18 = getelementptr inbounds nuw i8, ptr %17, i64 132
  %19 = load i32, ptr %18, align 4, !tbaa !38
  %.not28 = icmp eq i32 %19, 0
  br i1 %.not28, label %40, label %20

20:                                               ; preds = %6
  %21 = sdiv i32 2147483647, %19
  %22 = icmp ugt i32 %12, %21
  br i1 %22, label %40, label %23

23:                                               ; preds = %20
  %24 = mul i32 %19, %12
  %25 = load ptr, ptr %3, align 8, !tbaa !12
  %26 = tail call i64 @avio_skip(ptr noundef %25, i64 noundef 24) #4
  %27 = trunc i64 %26 to i32
  %28 = icmp slt i32 %27, 0
  br i1 %28, label %40, label %29

29:                                               ; preds = %23
  %30 = icmp eq i32 %10, 1262701634
  br i1 %30, label %31, label %36

31:                                               ; preds = %29
  %32 = load ptr, ptr %3, align 8, !tbaa !12
  %33 = tail call i32 @av_get_packet(ptr noundef %32, ptr noundef %1, i32 noundef %24) #4
  %34 = getelementptr inbounds nuw i8, ptr %1, i64 36
  store i32 0, ptr %34, align 4, !tbaa !47
  %35 = getelementptr inbounds nuw i8, ptr %1, i64 72
  store i64 %8, ptr %35, align 8, !tbaa !48
  br label %40

36:                                               ; preds = %29
  tail call void (ptr, i32, ptr, ...) @av_log(ptr noundef nonnull %0, i32 noundef 16, ptr noundef nonnull @.str.3, i32 noundef %10) #4
  %37 = load ptr, ptr %3, align 8, !tbaa !12
  %38 = zext i32 %24 to i64
  %39 = tail call i64 @avio_skip(ptr noundef %37, i64 noundef %38) #4
  br label %40

40:                                               ; preds = %31, %36, %23, %6, %20, %2
  %.023 = phi i32 [ -541478725, %2 ], [ -1094995529, %20 ], [ -1094995529, %6 ], [ %27, %23 ], [ %33, %31 ], [ -1094995529, %36 ]
  ret i32 %.023
}